; Function Attrs: mustprogress nofree norecurse nosync nounwind willreturn memory(read, inaccessiblemem: none) uwtable
define noundef zeroext i1 @_ZNK3net9IPAddress6IsZeroEv(ptr noundef nonnull readonly align 8 captures(none) dereferenceable(24) %0) local_unnamed_addr #5 align 2 {
  %2 = load ptr, ptr %0, align 8, !tbaa !12
  %3 = getelementptr inbounds nuw i8, ptr %0, i64 8
  %4 = load ptr, ptr %3, align 8, !tbaa !12
  %.not1415 = icmp eq ptr %2, %4
  br i1 %.not1415, label %._crit_edge, label %.lr.ph

5:                                                ; preds = %.lr.ph
  %6 = getelementptr inbounds nuw i8, ptr %.sroa.08.016, i64 1
  %.not14 = icmp eq ptr %6, %4
  br i1 %.not14, label %._crit_edge, label %.lr.ph

.lr.ph:                                           ; preds = %1, %5
  %.sroa.08.016 = phi ptr [ %6, %5 ], [ %2, %1 ]
  %7 = load i8, ptr %.sroa.08.016, align 1, !tbaa !13
  %.not = icmp eq i8 %7, 0
  br i1 %.not, label %5, label %.loopexit

._crit_edge:                                      ; preds = %5, %1
  %8 = icmp ne ptr %2, %4
  br label %.loopexit

.loopexit:                                        ; preds = %.lr.ph, %._crit_edge
  %.3 = phi i1 [ %8, %._crit_edge ], [ false, %.lr.ph ]
  ret i1 %.3
}